target datalayout = "e-m:e-p270:32:32-p271:32:32-p272:64:64-i64:64-i128:128-f80:128-n8:16:32:64-S128"
target triple = "x86_64-pc-linux-gnu"

%"struct.absl::FailureSignalData" = type { i32, ptr, %struct.sigaction }
%struct.sigaction = type { %union.anon, %struct.__sigset_t, i32, ptr }
%union.anon = type { ptr }
%struct.__sigset_t = type { [16 x i64] }

@.str = private unnamed_addr constant [1 x i8] zeroinitializer, align 1

; Function Attrs: mustprogress nounwind uwtable
define dso_local noundef ptr @_ZN4absl18debugging_internal21FailureSignalToStringEi(i32 noundef %0) #0 {
  %2 = alloca ptr, align 8
  %3 = alloca i32, align 4
  %4 = alloca ptr, align 8
  %5 = alloca ptr, align 8
  %6 = alloca ptr, align 8
  %7 = alloca i32, align 4
  %8 = alloca ptr, align 8
  store i32 %0, ptr %3, align 4, !tbaa !4
  call void @llvm.lifetime.start.p0(i64 8, ptr %4) #8
  store ptr @_ZN4abslL19failure_signal_dataE, ptr %4, align 8, !tbaa !8
  call void @llvm.lifetime.start.p0(i64 8, ptr %5) #8
  store ptr @_ZN4abslL19failure_signal_dataE, ptr %5, align 8, !tbaa !8
  call void @llvm.lifetime.start.p0(i64 8, ptr %6) #8
  store ptr getelementptr inbounds (%"struct.absl::FailureSignalData", ptr @_ZN4abslL19failure_signal_dataE, i64 7), ptr %6, align 8, !tbaa !8
  br label %9

9:                                                ; preds = %29, %1
  %10 = load ptr, ptr %5, align 8, !tbaa !8
  %11 = load ptr, ptr %6, align 8, !tbaa !8
  %12 = icmp ne ptr %10, %11
  br i1 %12, label %14, label %13

13:                                               ; preds = %9
  store i32 2, ptr %7, align 4
  br label %32

14:                                               ; preds = %9
  call void @llvm.lifetime.start.p0(i64 8, ptr %8) #8
  %15 = load ptr, ptr %5, align 8, !tbaa !8
  store ptr %15, ptr %8, align 8, !tbaa !8
  %16 = load ptr, ptr %8, align 8, !tbaa !8
  %17 = getelementptr inbounds nuw %"struct.absl::FailureSignalData", ptr %16, i32 0, i32 0
  %18 = load i32, ptr %17, align 8, !tbaa !11
  %19 = load i32, ptr %3, align 4, !tbaa !4
  %20 = icmp eq i32 %18, %19
  br i1 %20, label %21, label %25

21:                                               ; preds = %14
  %22 = load ptr, ptr %8, align 8, !tbaa !8
  %23 = getelementptr inbounds nuw %"struct.absl::FailureSignalData", ptr %22, i32 0, i32 1
  %24 = load ptr, ptr %23, align 8, !tbaa !16
  store ptr %24, ptr %2, align 8
  store i32 1, ptr %7, align 4
  br label %26

25:                                               ; preds = %14
  store i32 0, ptr %7, align 4
  br label %26

26:                                               ; preds = %25, %21
  call void @llvm.lifetime.end.p0(i64 8, ptr %8) #8
  %27 = load i32, ptr %7, align 4
  switch i32 %27, label %32 [
    i32 0, label %28
  ]

28:                                               ; preds = %26
  br label %29

29:                                               ; preds = %28
  %30 = load ptr, ptr %5, align 8, !tbaa !8
  %31 = getelementptr inbounds nuw %"struct.absl::FailureSignalData", ptr %30, i32 1
  store ptr %31, ptr %5, align 8, !tbaa !8
  br label %9

32:                                               ; preds = %26, %13
  call void @llvm.lifetime.end.p0(i64 8, ptr %6) #8
  call void @llvm.lifetime.end.p0(i64 8, ptr %5) #8
  call void @llvm.lifetime.end.p0(i64 8, ptr %4) #8
  %33 = load i32, ptr %7, align 4
  switch i32 %33, label %37 [
    i32 2, label %34
    i32 1, label %35
  ]

34:                                               ; preds = %32
  store ptr @.str, ptr %2, align 8
  br label %35

35:                                               ; preds = %34, %32
  %36 = load ptr, ptr %2, align 8
  ret ptr %36

37:                                               ; preds = %32
  unreachable
}