; Function Attrs: mustprogress nofree norecurse nosync nounwind willreturn memory(read, argmem: none, inaccessiblemem: none) uwtable
define dso_local noundef ptr @_ZN4absl18debugging_internal21FailureSignalToStringEi(i32 noundef %0) local_unnamed_addr #0 {
  br label %3

2:                                                ; preds = %3
  %.011.add = add nuw nsw i64 %.011.idx15, 168
  %.not = icmp eq i64 %.011.add, 1176
  br i1 %.not, label %.loopexit, label %3

3:                                                ; preds = %1, %2
  %.011.idx15 = phi i64 [ 0, %1 ], [ %.011.add, %2 ]
  %.011.ptr16 = getelementptr inbounds nuw i8, ptr @_ZN4abslL19failure_signal_dataE, i64 %.011.idx15
  %4 = load i32, ptr %.011.ptr16, align 8, !tbaa !4
  %.not12 = icmp eq i32 %4, %0
  br i1 %.not12, label %.thread, label %2

.thread:                                          ; preds = %3
  %.011.ptr16.le = getelementptr inbounds nuw i8, ptr @_ZN4abslL19failure_signal_dataE, i64 %.011.idx15
  %5 = getelementptr inbounds nuw i8, ptr %.011.ptr16.le, i64 8
  %6 = load ptr, ptr %5, align 8, !tbaa !13
  br label %.loopexit

.loopexit:                                        ; preds = %2, %.thread
  %spec.select = phi ptr [ %6, %.thread ], [ @.str, %2 ]
  ret ptr %spec.select
}